target datalayout = "e-m:e-p270:32:32-p271:32:32-p272:64:64-i64:64-i128:128-f80:128-n8:16:32:64-S128"
target triple = "x86_64-pc-linux-gnu"

%"class.std::__cxx11::basic_string" = type { %"struct.std::__cxx11::basic_string<char>::_Alloc_hider", i64, %union.anon }
%"struct.std::__cxx11::basic_string<char>::_Alloc_hider" = type { ptr }
%union.anon = type { i64, [8 x i8] }
%"class.std::allocator" = type { i8 }
%"struct.Stockfish::CommandLine" = type { i32, ptr, %"class.std::__cxx11::basic_string", %"class.std::__cxx11::basic_string" }

@.str.15 = private unnamed_addr constant [1 x i8] zeroinitializer, align 1
@.str.30 = private unnamed_addr constant [2 x i8] c"/\00", align 1
@.str.31 = private unnamed_addr constant [3 x i8] c"\\/\00", align 1
@.str.32 = private unnamed_addr constant [2 x i8] c".\00", align 1
@.str.37 = private unnamed_addr constant [50 x i8] c"basic_string: construction from null is not valid\00", align 1

; Function Attrs: mustprogress nounwind uwtable
define linkonce_odr dso_local void @_ZNSt16allocator_traitsISaIcEE37select_on_container_copy_constructionERKS0_(ptr dead_on_unwind noalias writable sret(%"class.std::allocator") align 1 %0, ptr noundef nonnull align 1 dereferenceable(1) %1) #4 comdat align 2 {
  %3 = alloca ptr, align 8
  %4 = alloca ptr, align 8
  store ptr %0, ptr %3, align 8
  store ptr %1, ptr %4, align 8
  %5 = load ptr, ptr %4, align 8
  call void @_ZNSaIcEC1ERKS_(ptr noundef nonnull align 1 dereferenceable(1) %0, ptr noundef nonnull align 1 dereferenceable(1) %5) #3
  ret void
}

; Function Attrs: mustprogress nounwind uwtable
define linkonce_odr dso_local void @_ZN9__gnu_cxx14__alloc_traitsISaIcEcE17_S_select_on_copyERKS1_(ptr dead_on_unwind noalias writable sret(%"class.std::allocator") align 1 %0, ptr noundef nonnull align 1 dereferenceable(1) %1) #4 comdat align 2 {
  %3 = alloca ptr, align 8
  %4 = alloca ptr, align 8
  store ptr %0, ptr %3, align 8
  store ptr %1, ptr %4, align 8
  %5 = load ptr, ptr %4, align 8
  call void @_ZNSt16allocator_traitsISaIcEE37select_on_container_copy_constructionERKS0_(ptr dead_on_unwind writable sret(%"class.std::allocator") align 1 %0, ptr noundef nonnull align 1 dereferenceable(1) %5)
  ret void
}

; Function Attrs: mustprogress nounwind uwtable
define linkonce_odr dso_local noundef i64 @_ZNSt11char_traitsIcE6lengthEPKc(ptr noundef %0) #4 comdat align 2 {
  %2 = alloca ptr, align 8
  store ptr %0, ptr %2, align 8
  %3 = load ptr, ptr %2, align 8
  %4 = call i64 @strlen(ptr noundef %3) #3
  ret i64 %4
}

; Function Attrs: mustprogress nounwind uwtable
define linkonce_odr dso_local void @_ZStplIcSt11char_traitsIcESaIcEENSt7__cxx1112basic_stringIT_T0_T1_EEPKS5_RKS8_(ptr dead_on_unwind noalias writable sret(%"class.std::__cxx11::basic_string") align 8 %0, ptr noundef %1, ptr noundef nonnull align 8 dereferenceable(32) %2) #4 comdat {
  %4 = alloca ptr, align 8
  %5 = alloca ptr, align 8
  %6 = alloca ptr, align 8
  %7 = alloca i64, align 8
  %8 = alloca i1, align 1
  %9 = alloca %"class.std::allocator", align 1
  %10 = alloca %"class.std::allocator", align 1
  store ptr %0, ptr %4, align 8
  store ptr %1, ptr %5, align 8
  store ptr %2, ptr %6, align 8
  %11 = load ptr, ptr %5, align 8
  %12 = call noundef i64 @_ZNSt11char_traitsIcE6lengthEPKc(ptr noundef %11)
  store i64 %12, ptr %7, align 8
  store i1 false, ptr %8, align 1
  %13 = load ptr, ptr %6, align 8
  call void @_ZNKSt7__cxx1112basic_stringIcSt11char_traitsIcESaIcEE13get_allocatorEv(ptr dead_on_unwind writable sret(%"class.std::allocator") align 1 %10, ptr noundef nonnull align 8 dereferenceable(32) %13) #3
  call void @_ZN9__gnu_cxx14__alloc_traitsISaIcEcE17_S_select_on_copyERKS1_(ptr dead_on_unwind writable sret(%"class.std::allocator") align 1 %9, ptr noundef nonnull align 1 dereferenceable(1) %10)
  call void @_ZNSt7__cxx1112basic_stringIcSt11char_traitsIcESaIcEEC1ERKS3_(ptr noundef nonnull align 8 dereferenceable(32) %0, ptr noundef nonnull align 1 dereferenceable(1) %9) #3
  call void @_ZNSaIcED1Ev(ptr noundef nonnull align 1 dereferenceable(1) %9) #3
  call void @_ZNSaIcED1Ev(ptr noundef nonnull align 1 dereferenceable(1) %10) #3
  %14 = load i64, ptr %7, align 8
  %15 = load ptr, ptr %6, align 8
  %16 = call noundef i64 @_ZNKSt7__cxx1112basic_stringIcSt11char_traitsIcESaIcEE4sizeEv(ptr noundef nonnull align 8 dereferenceable(32) %15) #3
  %17 = add i64 %14, %16
  call void @_ZNSt7__cxx1112basic_stringIcSt11char_traitsIcESaIcEE7reserveEm(ptr noundef nonnull align 8 dereferenceable(32) %0, i64 noundef %17)
  %18 = load ptr, ptr %5, align 8
  %19 = load i64, ptr %7, align 8
  %20 = call noundef nonnull align 8 dereferenceable(32) ptr @_ZNSt7__cxx1112basic_stringIcSt11char_traitsIcESaIcEE6appendEPKcm(ptr noundef nonnull align 8 dereferenceable(32) %0, ptr noundef %18, i64 noundef %19)
  %21 = load ptr, ptr %6, align 8
  %22 = call noundef nonnull align 8 dereferenceable(32) ptr @_ZNSt7__cxx1112basic_stringIcSt11char_traitsIcESaIcEE6appendERKS4_(ptr noundef nonnull align 8 dereferenceable(32) %0, ptr noundef nonnull align 8 dereferenceable(32) %21)
  store i1 true, ptr %8, align 1
  %23 = load i1, ptr %8, align 1
  br i1 %23, label %25, label %24

24:                                               ; preds = %3
  call void @_ZNSt7__cxx1112basic_stringIcSt11char_traitsIcESaIcEED1Ev(ptr noundef nonnull align 8 dereferenceable(32) %0) #3
  br label %25

25:                                               ; preds = %24, %3
  ret void
}

; Function Attrs: mustprogress nounwind uwtable
define linkonce_odr dso_local void @_ZNSt7__cxx1112basic_stringIcSt11char_traitsIcESaIcEEC2IS3_EEPKcRKS3_(ptr noundef nonnull align 8 dereferenceable(32) %0, ptr noundef %1, ptr noundef nonnull align 1 dereferenceable(1) %2) unnamed_addr #4 comdat align 2 {
  %4 = alloca ptr, align 8
  %5 = alloca ptr, align 8
  %6 = alloca ptr, align 8
  %7 = alloca ptr, align 8
  store ptr %0, ptr %4, align 8
  store ptr %1, ptr %5, align 8
  store ptr %2, ptr %6, align 8
  %8 = load ptr, ptr %4, align 8
  %9 = getelementptr inbounds %"class.std::__cxx11::basic_string", ptr %8, i32 0, i32 0
  %10 = call noundef ptr @_ZNSt7__cxx1112basic_stringIcSt11char_traitsIcESaIcEE13_M_local_dataEv(ptr noundef nonnull align 8 dereferenceable(32) %8)
  %11 = load ptr, ptr %6, align 8
  call void @_ZNSt7__cxx1112basic_stringIcSt11char_traitsIcESaIcEE12_Alloc_hiderC1EPcRKS3_(ptr noundef nonnull align 8 dereferenceable(8) %9, ptr noundef %10, ptr noundef nonnull align 1 dereferenceable(1) %11)
  %12 = load ptr, ptr %5, align 8
  %13 = icmp eq ptr %12, null
  br i1 %13, label %14, label %15

14:                                               ; preds = %3
  call void @_ZSt19__throw_logic_errorPKc(ptr noundef @.str.37) #13
  unreachable

15:                                               ; preds = %3
  %16 = load ptr, ptr %5, align 8
  %17 = load ptr, ptr %5, align 8
  %18 = call noundef i64 @_ZNSt11char_traitsIcE6lengthEPKc(ptr noundef %17)
  %19 = getelementptr inbounds i8, ptr %16, i64 %18
  store ptr %19, ptr %7, align 8
  %20 = load ptr, ptr %5, align 8
  %21 = load ptr, ptr %7, align 8
  call void @_ZNSt7__cxx1112basic_stringIcSt11char_traitsIcESaIcEE12_M_constructIPKcEEvT_S8_St20forward_iterator_tag(ptr noundef nonnull align 8 dereferenceable(32) %8, ptr noundef %20, ptr noundef %21)
  ret void
}

; Function Attrs: mustprogress nounwind uwtable
define dso_local void @_ZN9Stockfish11CommandLineC2EiPPc(ptr noundef nonnull align 8 dereferenceable(80) %0, i32 noundef %1, ptr noundef %2) unnamed_addr #4 align 2 {
  %4 = alloca ptr, align 8
  %5 = alloca i32, align 4
  %6 = alloca ptr, align 8
  %7 = alloca %"class.std::__cxx11::basic_string", align 8
  %8 = alloca %"class.std::__cxx11::basic_string", align 8
  %9 = alloca %"class.std::allocator", align 1
  %10 = alloca [40000 x i8], align 16
  %11 = alloca ptr, align 8
  %12 = alloca i64, align 8
  %13 = alloca %"class.std::__cxx11::basic_string", align 8
  %14 = alloca %"class.std::__cxx11::basic_string", align 8
  store ptr %0, ptr %4, align 8
  store i32 %1, ptr %5, align 4
  store ptr %2, ptr %6, align 8
  %15 = load ptr, ptr %4, align 8
  %16 = getelementptr inbounds %"struct.Stockfish::CommandLine", ptr %15, i32 0, i32 0
  %17 = load i32, ptr %5, align 4
  store i32 %17, ptr %16, align 8
  %18 = getelementptr inbounds %"struct.Stockfish::CommandLine", ptr %15, i32 0, i32 1
  %19 = load ptr, ptr %6, align 8
  store ptr %19, ptr %18, align 8
  %20 = getelementptr inbounds %"struct.Stockfish::CommandLine", ptr %15, i32 0, i32 2
  call void @_ZNSt7__cxx1112basic_stringIcSt11char_traitsIcESaIcEEC1Ev(ptr noundef nonnull align 8 dereferenceable(32) %20) #3
  %21 = getelementptr inbounds %"struct.Stockfish::CommandLine", ptr %15, i32 0, i32 3
  call void @_ZNSt7__cxx1112basic_stringIcSt11char_traitsIcESaIcEEC1Ev(ptr noundef nonnull align 8 dereferenceable(32) %21) #3
  call void @_ZNSt7__cxx1112basic_stringIcSt11char_traitsIcESaIcEEC1Ev(ptr noundef nonnull align 8 dereferenceable(32) %7) #3
  %22 = getelementptr inbounds %"struct.Stockfish::CommandLine", ptr %15, i32 0, i32 1
  %23 = load ptr, ptr %22, align 8
  %24 = getelementptr inbounds ptr, ptr %23, i64 0
  %25 = load ptr, ptr %24, align 8
  call void @_ZNSaIcEC1Ev(ptr noundef nonnull align 1 dereferenceable(1) %9) #3
  call void @_ZNSt7__cxx1112basic_stringIcSt11char_traitsIcESaIcEEC2IS3_EEPKcRKS3_(ptr noundef nonnull align 8 dereferenceable(32) %8, ptr noundef %25, ptr noundef nonnull align 1 dereferenceable(1) %9)
  call void @_ZNSaIcED1Ev(ptr noundef nonnull align 1 dereferenceable(1) %9) #3
  %26 = call noundef nonnull align 8 dereferenceable(32) ptr @_ZNSt7__cxx1112basic_stringIcSt11char_traitsIcESaIcEEaSEPKc(ptr noundef nonnull align 8 dereferenceable(32) %7, ptr noundef @.str.30)
  %27 = getelementptr inbounds %"struct.Stockfish::CommandLine", ptr %15, i32 0, i32 3
  %28 = call noundef nonnull align 8 dereferenceable(32) ptr @_ZNSt7__cxx1112basic_stringIcSt11char_traitsIcESaIcEEaSEPKc(ptr noundef nonnull align 8 dereferenceable(32) %27, ptr noundef @.str.15)
  %29 = getelementptr inbounds [40000 x i8], ptr %10, i64 0, i64 0
  %30 = call ptr @getcwd(ptr noundef %29, i64 noundef 40000) #3
  store ptr %30, ptr %11, align 8
  %31 = load ptr, ptr %11, align 8
  %32 = icmp ne ptr %31, null
  br i1 %32, label %33, label %37

33:                                               ; preds = %3
  %34 = load ptr, ptr %11, align 8
  %35 = getelementptr inbounds %"struct.Stockfish::CommandLine", ptr %15, i32 0, i32 3
  %36 = call noundef nonnull align 8 dereferenceable(32) ptr @_ZNSt7__cxx1112basic_stringIcSt11char_traitsIcESaIcEEaSEPKc(ptr noundef nonnull align 8 dereferenceable(32) %35, ptr noundef %34)
  br label %37

37:                                               ; preds = %33, %3
  %38 = getelementptr inbounds %"struct.Stockfish::CommandLine", ptr %15, i32 0, i32 2
  %39 = call noundef nonnull align 8 dereferenceable(32) ptr @_ZNSt7__cxx1112basic_stringIcSt11char_traitsIcESaIcEEaSERKS4_(ptr noundef nonnull align 8 dereferenceable(32) %38, ptr noundef nonnull align 8 dereferenceable(32) %8)
  %40 = getelementptr inbounds %"struct.Stockfish::CommandLine", ptr %15, i32 0, i32 2
  %41 = call noundef i64 @_ZNKSt7__cxx1112basic_stringIcSt11char_traitsIcESaIcEE12find_last_ofEPKcm(ptr noundef nonnull align 8 dereferenceable(32) %40, ptr noundef @.str.31, i64 noundef -1) #3
  store i64 %41, ptr %12, align 8
  %42 = load i64, ptr %12, align 8
  %43 = icmp eq i64 %42, -1
  br i1 %43, label %44, label %47

44:                                               ; preds = %37
  call void @_ZStplIcSt11char_traitsIcESaIcEENSt7__cxx1112basic_stringIT_T0_T1_EEPKS5_RKS8_(ptr dead_on_unwind writable sret(%"class.std::__cxx11::basic_string") align 8 %13, ptr noundef @.str.32, ptr noundef nonnull align 8 dereferenceable(32) %7)
  %45 = getelementptr inbounds %"struct.Stockfish::CommandLine", ptr %15, i32 0, i32 2
  %46 = call noundef nonnull align 8 dereferenceable(32) ptr @_ZNSt7__cxx1112basic_stringIcSt11char_traitsIcESaIcEEaSEOS4_(ptr noundef nonnull align 8 dereferenceable(32) %45, ptr noundef nonnull align 8 dereferenceable(32) %13) #3
  call void @_ZNSt7__cxx1112basic_stringIcSt11char_traitsIcESaIcEED1Ev(ptr noundef nonnull align 8 dereferenceable(32) %13) #3
  br label %51

47:                                               ; preds = %37
  %48 = getelementptr inbounds %"struct.Stockfish::CommandLine", ptr %15, i32 0, i32 2
  %49 = load i64, ptr %12, align 8
  %50 = add i64 %49, 1
  call void @_ZNSt7__cxx1112basic_stringIcSt11char_traitsIcESaIcEE6resizeEm(ptr noundef nonnull align 8 dereferenceable(32) %48, i64 noundef %50)
  br label %51

51:                                               ; preds = %47, %44
  %52 = getelementptr inbounds %"struct.Stockfish::CommandLine", ptr %15, i32 0, i32 2
  call void @_ZStplIcSt11char_traitsIcESaIcEENSt7__cxx1112basic_stringIT_T0_T1_EEPKS5_RKS8_(ptr dead_on_unwind writable sret(%"class.std::__cxx11::basic_string") align 8 %14, ptr noundef @.str.32, ptr noundef nonnull align 8 dereferenceable(32) %7)
  %53 = call noundef i64 @_ZNKSt7__cxx1112basic_stringIcSt11char_traitsIcESaIcEE4findERKS4_m(ptr noundef nonnull align 8 dereferenceable(32) %52, ptr noundef nonnull align 8 dereferenceable(32) %14, i64 noundef 0) #3
  %54 = icmp eq i64 %53, 0
  call void @_ZNSt7__cxx1112basic_stringIcSt11char_traitsIcESaIcEED1Ev(ptr noundef nonnull align 8 dereferenceable(32) %14) #3
  br i1 %54, label %55, label %59

55:                                               ; preds = %51
  %56 = getelementptr inbounds %"struct.Stockfish::CommandLine", ptr %15, i32 0, i32 2
  %57 = getelementptr inbounds %"struct.Stockfish::CommandLine", ptr %15, i32 0, i32 3
  %58 = call noundef nonnull align 8 dereferenceable(32) ptr @_ZNSt7__cxx1112basic_stringIcSt11char_traitsIcESaIcEE7replaceEmmRKS4_(ptr noundef nonnull align 8 dereferenceable(32) %56, i64 noundef 0, i64 noundef 1, ptr noundef nonnull align 8 dereferenceable(32) %57)
  br label %59

59:                                               ; preds = %55, %51
  call void @_ZNSt7__cxx1112basic_stringIcSt11char_traitsIcESaIcEED1Ev(ptr noundef nonnull align 8 dereferenceable(32) %8) #3
  call void @_ZNSt7__cxx1112basic_stringIcSt11char_traitsIcESaIcEED1Ev(ptr noundef nonnull align 8 dereferenceable(32) %7) #3
  ret void
}