; Function Attrs: mustprogress nounwind uwtable
define dso_local void @_ZN9Stockfish11CommandLineC2EiPPc(ptr noundef nonnull align 8 dereferenceable(80) %0, i32 noundef %1, ptr noundef %2) unnamed_addr #3 align 2 {
  %4 = alloca %"class.std::allocator", align 1
  %5 = alloca %"class.std::allocator", align 1
  %6 = alloca %"class.std::allocator", align 1
  %7 = alloca %"class.std::allocator", align 1
  %8 = alloca %"class.std::__cxx11::basic_string", align 8
  %9 = alloca %"class.std::__cxx11::basic_string", align 8
  %10 = alloca %"class.std::allocator", align 1
  %11 = alloca [40000 x i8], align 16
  %12 = alloca %"class.std::__cxx11::basic_string", align 8
  %13 = alloca %"class.std::__cxx11::basic_string", align 8
  store i32 %1, ptr %0, align 8
  %14 = getelementptr inbounds i8, ptr %0, i64 8
  store ptr %2, ptr %14, align 8
  %15 = getelementptr inbounds i8, ptr %0, i64 16
  tail call void @_ZNSt7__cxx1112basic_stringIcSt11char_traitsIcESaIcEEC1Ev(ptr noundef nonnull align 8 dereferenceable(32) %15) #21
  %16 = getelementptr inbounds i8, ptr %0, i64 48
  tail call void @_ZNSt7__cxx1112basic_stringIcSt11char_traitsIcESaIcEEC1Ev(ptr noundef nonnull align 8 dereferenceable(32) %16) #21
  call void @_ZNSt7__cxx1112basic_stringIcSt11char_traitsIcESaIcEEC1Ev(ptr noundef nonnull align 8 dereferenceable(32) %8) #21
  %17 = load ptr, ptr %14, align 8
  %18 = load ptr, ptr %17, align 8
  call void @_ZNSaIcEC1Ev(ptr noundef nonnull align 1 dereferenceable(1) %10) #21
  %19 = call noundef ptr @_ZNSt7__cxx1112basic_stringIcSt11char_traitsIcESaIcEE13_M_local_dataEv(ptr noundef nonnull align 8 dereferenceable(32) %9) #21
  call void @_ZNSt7__cxx1112basic_stringIcSt11char_traitsIcESaIcEE12_Alloc_hiderC1EPcRKS3_(ptr noundef nonnull align 8 dereferenceable(8) %9, ptr noundef %19, ptr noundef nonnull align 1 dereferenceable(1) %10) #21
  %20 = icmp eq ptr %18, null
  br i1 %20, label %21, label %_ZNSt7__cxx1112basic_stringIcSt11char_traitsIcESaIcEEC2IS3_EEPKcRKS3_.exit

21:                                               ; preds = %3
  call void @_ZSt19__throw_logic_errorPKc(ptr noundef nonnull @.str.37) #22
  unreachable

_ZNSt7__cxx1112basic_stringIcSt11char_traitsIcESaIcEEC2IS3_EEPKcRKS3_.exit: ; preds = %3
  %22 = call noundef i64 @strlen(ptr noundef nonnull dereferenceable(1) %18) #21
  %23 = getelementptr inbounds i8, ptr %18, i64 %22
  call void @_ZNSt7__cxx1112basic_stringIcSt11char_traitsIcESaIcEE12_M_constructIPKcEEvT_S8_St20forward_iterator_tag(ptr noundef nonnull align 8 dereferenceable(32) %9, ptr noundef nonnull %18, ptr noundef nonnull %23)
  call void @_ZNSaIcED1Ev(ptr noundef nonnull align 1 dereferenceable(1) %10) #21
  %24 = call noundef nonnull align 8 dereferenceable(32) ptr @_ZNSt7__cxx1112basic_stringIcSt11char_traitsIcESaIcEEaSEPKc(ptr noundef nonnull align 8 dereferenceable(32) %8, ptr noundef nonnull @.str.30) #21
  %25 = call noundef nonnull align 8 dereferenceable(32) ptr @_ZNSt7__cxx1112basic_stringIcSt11char_traitsIcESaIcEEaSEPKc(ptr noundef nonnull align 8 dereferenceable(32) %16, ptr noundef nonnull @.str.15) #21
  %26 = call ptr @getcwd(ptr noundef nonnull %11, i64 noundef 40000) #21
  %.not = icmp eq ptr %26, null
  br i1 %.not, label %29, label %27

27:                                               ; preds = %_ZNSt7__cxx1112basic_stringIcSt11char_traitsIcESaIcEEC2IS3_EEPKcRKS3_.exit
  %28 = call noundef nonnull align 8 dereferenceable(32) ptr @_ZNSt7__cxx1112basic_stringIcSt11char_traitsIcESaIcEEaSEPKc(ptr noundef nonnull align 8 dereferenceable(32) %16, ptr noundef nonnull %26) #21
  br label %29

29:                                               ; preds = %27, %_ZNSt7__cxx1112basic_stringIcSt11char_traitsIcESaIcEEC2IS3_EEPKcRKS3_.exit
  %30 = call noundef nonnull align 8 dereferenceable(32) ptr @_ZNSt7__cxx1112basic_stringIcSt11char_traitsIcESaIcEEaSERKS4_(ptr noundef nonnull align 8 dereferenceable(32) %15, ptr noundef nonnull align 8 dereferenceable(32) %9) #21
  %31 = call noundef i64 @_ZNKSt7__cxx1112basic_stringIcSt11char_traitsIcESaIcEE12find_last_ofEPKcm(ptr noundef nonnull align 8 dereferenceable(32) %15, ptr noundef nonnull @.str.31, i64 noundef -1) #21
  %32 = icmp eq i64 %31, -1
  br i1 %32, label %33, label %39

33:                                               ; preds = %29
  call void @llvm.lifetime.start.p0(i64 1, ptr nonnull %6)
  call void @llvm.lifetime.start.p0(i64 1, ptr nonnull %7)
  call void @_ZNKSt7__cxx1112basic_stringIcSt11char_traitsIcESaIcEE13get_allocatorEv(ptr dead_on_unwind nonnull writable sret(%"class.std::allocator") align 1 %7, ptr noundef nonnull align 8 dereferenceable(32) %8) #21, !noalias !11
  call void @_ZNSaIcEC1ERKS_(ptr noundef nonnull align 1 dereferenceable(1) %6, ptr noundef nonnull align 1 dereferenceable(1) %7) #21, !noalias !11
  call void @_ZNSt7__cxx1112basic_stringIcSt11char_traitsIcESaIcEEC1ERKS3_(ptr noundef nonnull align 8 dereferenceable(32) %12, ptr noundef nonnull align 1 dereferenceable(1) %6) #21
  call void @_ZNSaIcED1Ev(ptr noundef nonnull align 1 dereferenceable(1) %6) #21
  call void @_ZNSaIcED1Ev(ptr noundef nonnull align 1 dereferenceable(1) %7) #21
  %34 = call noundef i64 @_ZNKSt7__cxx1112basic_stringIcSt11char_traitsIcESaIcEE4sizeEv(ptr noundef nonnull align 8 dereferenceable(32) %8) #21
  %35 = add i64 %34, 1
  call void @_ZNSt7__cxx1112basic_stringIcSt11char_traitsIcESaIcEE7reserveEm(ptr noundef nonnull align 8 dereferenceable(32) %12, i64 noundef %35) #21
  %36 = call noundef nonnull align 8 dereferenceable(32) ptr @_ZNSt7__cxx1112basic_stringIcSt11char_traitsIcESaIcEE6appendEPKcm(ptr noundef nonnull align 8 dereferenceable(32) %12, ptr noundef nonnull @.str.32, i64 noundef 1) #21
  %37 = call noundef nonnull align 8 dereferenceable(32) ptr @_ZNSt7__cxx1112basic_stringIcSt11char_traitsIcESaIcEE6appendERKS4_(ptr noundef nonnull align 8 dereferenceable(32) %12, ptr noundef nonnull align 8 dereferenceable(32) %8) #21
  call void @llvm.lifetime.end.p0(i64 1, ptr nonnull %6)
  call void @llvm.lifetime.end.p0(i64 1, ptr nonnull %7)
  %38 = call noundef nonnull align 8 dereferenceable(32) ptr @_ZNSt7__cxx1112basic_stringIcSt11char_traitsIcESaIcEEaSEOS4_(ptr noundef nonnull align 8 dereferenceable(32) %15, ptr noundef nonnull align 8 dereferenceable(32) %12) #21
  call void @_ZNSt7__cxx1112basic_stringIcSt11char_traitsIcESaIcEED1Ev(ptr noundef nonnull align 8 dereferenceable(32) %12) #21
  br label %41

39:                                               ; preds = %29
  %40 = add nuw i64 %31, 1
  call void @_ZNSt7__cxx1112basic_stringIcSt11char_traitsIcESaIcEE6resizeEm(ptr noundef nonnull align 8 dereferenceable(32) %15, i64 noundef %40) #21
  br label %41

41:                                               ; preds = %39, %33
  call void @llvm.lifetime.start.p0(i64 1, ptr nonnull %4)
  call void @llvm.lifetime.start.p0(i64 1, ptr nonnull %5)
  call void @_ZNKSt7__cxx1112basic_stringIcSt11char_traitsIcESaIcEE13get_allocatorEv(ptr dead_on_unwind nonnull writable sret(%"class.std::allocator") align 1 %5, ptr noundef nonnull align 8 dereferenceable(32) %8) #21, !noalias !14
  call void @_ZNSaIcEC1ERKS_(ptr noundef nonnull align 1 dereferenceable(1) %4, ptr noundef nonnull align 1 dereferenceable(1) %5) #21, !noalias !14
  call void @_ZNSt7__cxx1112basic_stringIcSt11char_traitsIcESaIcEEC1ERKS3_(ptr noundef nonnull align 8 dereferenceable(32) %13, ptr noundef nonnull align 1 dereferenceable(1) %4) #21
  call void @_ZNSaIcED1Ev(ptr noundef nonnull align 1 dereferenceable(1) %4) #21
  call void @_ZNSaIcED1Ev(ptr noundef nonnull align 1 dereferenceable(1) %5) #21
  %42 = call noundef i64 @_ZNKSt7__cxx1112basic_stringIcSt11char_traitsIcESaIcEE4sizeEv(ptr noundef nonnull align 8 dereferenceable(32) %8) #21
  %43 = add i64 %42, 1
  call void @_ZNSt7__cxx1112basic_stringIcSt11char_traitsIcESaIcEE7reserveEm(ptr noundef nonnull align 8 dereferenceable(32) %13, i64 noundef %43) #21
  %44 = call noundef nonnull align 8 dereferenceable(32) ptr @_ZNSt7__cxx1112basic_stringIcSt11char_traitsIcESaIcEE6appendEPKcm(ptr noundef nonnull align 8 dereferenceable(32) %13, ptr noundef nonnull @.str.32, i64 noundef 1) #21
  %45 = call noundef nonnull align 8 dereferenceable(32) ptr @_ZNSt7__cxx1112basic_stringIcSt11char_traitsIcESaIcEE6appendERKS4_(ptr noundef nonnull align 8 dereferenceable(32) %13, ptr noundef nonnull align 8 dereferenceable(32) %8) #21
  call void @llvm.lifetime.end.p0(i64 1, ptr nonnull %4)
  call void @llvm.lifetime.end.p0(i64 1, ptr nonnull %5)
  %46 = call noundef i64 @_ZNKSt7__cxx1112basic_stringIcSt11char_traitsIcESaIcEE4findERKS4_m(ptr noundef nonnull align 8 dereferenceable(32) %15, ptr noundef nonnull align 8 dereferenceable(32) %13, i64 noundef 0) #21
  %47 = icmp eq i64 %46, 0
  call void @_ZNSt7__cxx1112basic_stringIcSt11char_traitsIcESaIcEED1Ev(ptr noundef nonnull align 8 dereferenceable(32) %13) #21
  br i1 %47, label %48, label %50

48:                                               ; preds = %41
  %49 = call noundef nonnull align 8 dereferenceable(32) ptr @_ZNSt7__cxx1112basic_stringIcSt11char_traitsIcESaIcEE7replaceEmmRKS4_(ptr noundef nonnull align 8 dereferenceable(32) %15, i64 noundef 0, i64 noundef 1, ptr noundef nonnull align 8 dereferenceable(32) %16) #21
  br label %50

50:                                               ; preds = %48, %41
  call void @_ZNSt7__cxx1112basic_stringIcSt11char_traitsIcESaIcEED1Ev(ptr noundef nonnull align 8 dereferenceable(32) %9) #21
  call void @_ZNSt7__cxx1112basic_stringIcSt11char_traitsIcESaIcEED1Ev(ptr noundef nonnull align 8 dereferenceable(32) %8) #21
  ret void
}